	.file	"transpose.c"
	.text
	.type	init_matrix, @function
init_matrix:
.LFB6:
	.cfi_startproc
	endbr64
	pushq	%rbp
	.cfi_def_cfa_offset 16
	.cfi_offset 6, -16
	movq	%rsp, %rbp
	.cfi_def_cfa_register 6
	movl	%edi, -20(%rbp)
	movq	%rsi, -32(%rbp)
	movsd	%xmm0, -40(%rbp)
	movl	$0, -4(%rbp)
	jmp	.L2
.L3:
	movl	-4(%rbp), %ecx
	movslq	%ecx, %rax
	imulq	$2021161081, %rax, %rax
	shrq	$32, %rax
	sarl	$3, %eax
	movl	%ecx, %edx
	sarl	$31, %edx
	subl	%edx, %eax
	movl	%eax, %edx
	sall	$4, %edx
	addl	%eax, %edx
	movl	%ecx, %eax
	subl	%edx, %eax
	addl	$1, %eax
	pxor	%xmm0, %xmm0
	cvtsi2sdl	%eax, %xmm0
	movl	-4(%rbp), %eax
	cltq
	leaq	0(,%rax,8), %rdx
	movq	-32(%rbp), %rax
	addq	%rdx, %rax
	mulsd	-40(%rbp), %xmm0
	movsd	%xmm0, (%rax)
	addl	$1, -4(%rbp)
.L2:
	movl	-20(%rbp), %eax
	imull	%eax, %eax
	cmpl	%eax, -4(%rbp)
	jl	.L3
	nop
	nop
	popq	%rbp
	.cfi_def_cfa 7, 8
	ret
	.cfi_endproc
.LFE6:
	.size	init_matrix, .-init_matrix
	.type	checksum, @function
checksum:
.LFB7:
	.cfi_startproc
	endbr64
	pushq	%rbp
	.cfi_def_cfa_offset 16
	.cfi_offset 6, -16
	movq	%rsp, %rbp
	.cfi_def_cfa_register 6
	movl	%edi, -20(%rbp)
	movq	%rsi, -32(%rbp)
	pxor	%xmm0, %xmm0
	movsd	%xmm0, -8(%rbp)
	movl	$0, -12(%rbp)
	jmp	.L5
.L6:
	movl	-12(%rbp), %eax
	cltq
	leaq	0(,%rax,8), %rdx
	movq	-32(%rbp), %rax
	addq	%rdx, %rax
	movsd	(%rax), %xmm0
	movsd	-8(%rbp), %xmm1
	addsd	%xmm1, %xmm0
	movsd	%xmm0, -8(%rbp)
	addl	$1, -12(%rbp)
.L5:
	movl	-20(%rbp), %eax
	imull	%eax, %eax
	cmpl	%eax, -12(%rbp)
	jl	.L6
	movsd	-8(%rbp), %xmm0
	popq	%rbp
	.cfi_def_cfa 7, 8
	ret
	.cfi_endproc
.LFE7:
	.size	checksum, .-checksum
	.type	transpose, @function
transpose:
.LFB8:
	.cfi_startproc
	endbr64
	pushq	%rbp
	.cfi_def_cfa_offset 16
	.cfi_offset 6, -16
	movq	%rsp, %rbp
	.cfi_def_cfa_register 6
	movl	%edi, -20(%rbp)
	movq	%rsi, -32(%rbp)
	movq	%rdx, -40(%rbp)
	movl	$0, -8(%rbp)
	jmp	.L9
.L12:
	movl	$0, -4(%rbp)
	jmp	.L10
.L11:
	movl	-4(%rbp), %eax
	imull	-20(%rbp), %eax
	movl	%eax, %edx
	movl	-8(%rbp), %eax
	addl	%edx, %eax
	cltq
	leaq	0(,%rax,8), %rdx
	movq	-32(%rbp), %rax
	addq	%rax, %rdx
	movl	-8(%rbp), %eax
	imull	-20(%rbp), %eax
	movl	%eax, %ecx
	movl	-4(%rbp), %eax
	addl	%ecx, %eax
	cltq
	leaq	0(,%rax,8), %rcx
	movq	-40(%rbp), %rax
	addq	%rcx, %rax
	movsd	(%rdx), %xmm0
	movsd	%xmm0, (%rax)
	addl	$1, -4(%rbp)
.L10:
	movl	-4(%rbp), %eax
	cmpl	-20(%rbp), %eax
	jl	.L11
	addl	$1, -8(%rbp)
.L9:
	movl	-8(%rbp), %eax
	cmpl	-20(%rbp), %eax
	jl	.L12
	nop
	nop
	popq	%rbp
	.cfi_def_cfa 7, 8
	ret
	.cfi_endproc
.LFE8:
	.size	transpose, .-transpose
	.section	.rodata
.LC1:
	.string	"usage: %s <N>\n"
.LC2:
	.string	"N must be positive\n"
.LC3:
	.string	"allocation failed for N=%d\n"
.LC5:
	.string	"checksum=%f\n"
	.text
	.globl	main
	.type	main, @function
main:
.LFB9:
	.cfi_startproc
	endbr64
	pushq	%rbp
	.cfi_def_cfa_offset 16
	.cfi_offset 6, -16
	movq	%rsp, %rbp
	.cfi_def_cfa_register 6
	subq	$48, %rsp
	movl	%edi, -36(%rbp)
	movq	%rsi, -48(%rbp)
	cmpl	$1, -36(%rbp)
	jg	.L14
	movq	-48(%rbp), %rax
	movq	(%rax), %rdx
	movq	stderr(%rip), %rax
	leaq	.LC1(%rip), %rcx
	movq	%rcx, %rsi
	movq	%rax, %rdi
	movl	$0, %eax
	call	fprintf@PLT
	movl	$1, %eax
	jmp	.L15
.L14:
	movq	-48(%rbp), %rax
	addq	$8, %rax
	movq	(%rax), %rax
	movq	%rax, %rdi
	call	atoi@PLT
	movl	%eax, -20(%rbp)
	cmpl	$0, -20(%rbp)
	jg	.L16
	movq	stderr(%rip), %rax
	movq	%rax, %rcx
	movl	$19, %edx
	movl	$1, %esi
	leaq	.LC2(%rip), %rax
	movq	%rax, %rdi
	call	fwrite@PLT
	movl	$1, %eax
	jmp	.L15
.L16:
	movl	-20(%rbp), %eax
	movslq	%eax, %rdx
	movl	-20(%rbp), %eax
	cltq
	imulq	%rdx, %rax
	movl	$8, %esi
	movq	%rax, %rdi
	call	calloc@PLT
	movq	%rax, -16(%rbp)
	movl	-20(%rbp), %eax
	movslq	%eax, %rdx
	movl	-20(%rbp), %eax
	cltq
	imulq	%rdx, %rax
	movl	$8, %esi
	movq	%rax, %rdi
	call	calloc@PLT
	movq	%rax, -8(%rbp)
	cmpq	$0, -16(%rbp)
	je	.L17
	cmpq	$0, -8(%rbp)
	jne	.L18
.L17:
	movq	stderr(%rip), %rax
	movl	-20(%rbp), %edx
	leaq	.LC3(%rip), %rcx
	movq	%rcx, %rsi
	movq	%rax, %rdi
	movl	$0, %eax
	call	fprintf@PLT
	movq	-16(%rbp), %rax
	movq	%rax, %rdi
	call	free@PLT
	movq	-8(%rbp), %rax
	movq	%rax, %rdi
	call	free@PLT
	movl	$1, %eax
	jmp	.L15
.L18:
	movq	.LC4(%rip), %rcx
	movq	-16(%rbp), %rdx
	movl	-20(%rbp), %eax
	movq	%rcx, %xmm0
	movq	%rdx, %rsi
	movl	%eax, %edi
	call	init_matrix
	movq	-8(%rbp), %rdx
	movq	-16(%rbp), %rcx
	movl	-20(%rbp), %eax
	movq	%rcx, %rsi
	movl	%eax, %edi
	call	transpose
	movq	-8(%rbp), %rdx
	movl	-20(%rbp), %eax
	movq	%rdx, %rsi
	movl	%eax, %edi
	call	checksum
	movq	%xmm0, %rax
	movq	%rax, %xmm0
	leaq	.LC5(%rip), %rax
	movq	%rax, %rdi
	movl	$1, %eax
	call	printf@PLT
	movq	-16(%rbp), %rax
	movq	%rax, %rdi
	call	free@PLT
	movq	-8(%rbp), %rax
	movq	%rax, %rdi
	call	free@PLT
	movl	$0, %eax
.L15:
	leave
	.cfi_def_cfa 7, 8
	ret
	.cfi_endproc
.LFE9:
	.size	main, .-main
	.section	.rodata
	.align 8
.LC4:
	.long	0
	.long	1072693248
	.ident	"GCC: (Ubuntu 13.3.0-6ubuntu2~24.04.1) 13.3.0"
	.section	.note.GNU-stack,"",@progbits
	.section	.note.gnu.property,"a"
	.align 8
	.long	1f - 0f
	.long	4f - 1f
	.long	5
0:
	.string	"GNU"
1:
	.align 8
	.long	0xc0000002
	.long	3f - 2f
2:
	.long	0x3
3:
	.align 8
4:
