
output/no_branch_jump_demo.elf:     file format elf32-littleriscv

Contents of section .text:
 0000 1301c1ff 23208100 13044100 b7c70000  ....# ....A.....
 0010 13078004 2380e700 b7c70000 13075006  ....#.........P.
 0020 2380e700 b7c70000 1307c006 2380e700  #...........#...
 0030 b7c70000 1307c006 2380e700 b7c70000  ........#.......
 0040 1307f006 2380e700 b7c70000 13070002  ....#...........
 0050 2380e700 b7c70000 13077005 2380e700  #.........p.#...
 0060 b7c70000 1307f006 2380e700 b7c70000  ........#.......
 0070 13072007 2380e700 b7c70000 1307c006  .. .#...........
 0080 2380e700 b7c70000 13074006 2380e700  #.........@.#...
 0090 b7c70000 1307a000 2380e700 13000000  ........#.......
 00a0 03240100 13014100 67800000           .$....A.g...    
Contents of section .comment:
 0000 4743433a 20286763 38393164 38646332  GCC: (gc891d8dc2
 0010 33652920 31332e32 2e3000             3e) 13.2.0.     
Contents of section .riscv.attributes:
 0000 411b0000 00726973 63760001 11000000  A....riscv......
 0010 04040572 76333265 31703900           ...rv32e1p9.    

Disassembly of section .text:

00000000 <_start>:
   0:	ffc10113          	addi	sp,sp,-4
   4:	00812023          	sw	s0,0(sp)
   8:	00410413          	addi	s0,sp,4
   c:	0000c7b7          	lui	a5,0xc
  10:	04800713          	li	a4,72
  14:	00e78023          	sb	a4,0(a5) # c000 <_estack+0x8e00>
  18:	0000c7b7          	lui	a5,0xc
  1c:	06500713          	li	a4,101
  20:	00e78023          	sb	a4,0(a5) # c000 <_estack+0x8e00>
  24:	0000c7b7          	lui	a5,0xc
  28:	06c00713          	li	a4,108
  2c:	00e78023          	sb	a4,0(a5) # c000 <_estack+0x8e00>
  30:	0000c7b7          	lui	a5,0xc
  34:	06c00713          	li	a4,108
  38:	00e78023          	sb	a4,0(a5) # c000 <_estack+0x8e00>
  3c:	0000c7b7          	lui	a5,0xc
  40:	06f00713          	li	a4,111
  44:	00e78023          	sb	a4,0(a5) # c000 <_estack+0x8e00>
  48:	0000c7b7          	lui	a5,0xc
  4c:	02000713          	li	a4,32
  50:	00e78023          	sb	a4,0(a5) # c000 <_estack+0x8e00>
  54:	0000c7b7          	lui	a5,0xc
  58:	05700713          	li	a4,87
  5c:	00e78023          	sb	a4,0(a5) # c000 <_estack+0x8e00>
  60:	0000c7b7          	lui	a5,0xc
  64:	06f00713          	li	a4,111
  68:	00e78023          	sb	a4,0(a5) # c000 <_estack+0x8e00>
  6c:	0000c7b7          	lui	a5,0xc
  70:	07200713          	li	a4,114
  74:	00e78023          	sb	a4,0(a5) # c000 <_estack+0x8e00>
  78:	0000c7b7          	lui	a5,0xc
  7c:	06c00713          	li	a4,108
  80:	00e78023          	sb	a4,0(a5) # c000 <_estack+0x8e00>
  84:	0000c7b7          	lui	a5,0xc
  88:	06400713          	li	a4,100
  8c:	00e78023          	sb	a4,0(a5) # c000 <_estack+0x8e00>
  90:	0000c7b7          	lui	a5,0xc
  94:	00a00713          	li	a4,10
  98:	00e78023          	sb	a4,0(a5) # c000 <_estack+0x8e00>
  9c:	00000013          	nop
  a0:	00012403          	lw	s0,0(sp)
  a4:	00410113          	addi	sp,sp,4
  a8:	00008067          	ret
