
output/BitNet_nomul.elf:     file format elf32-littleriscv

Contents of section .text:
 0000 17810000 13010100 97520000 9382c234  .........R.....4
 0010 17530000 13034339 63f86200 23a00200  .S....C9c.b.#...
 0020 93824200 6ff05fff ef00006c 6f000000  ..B.o._....lo...
 0030 130101fc 232e1102 232c8102 13040104  ....#...#,......
 0040 2326a4fc 2324b4fc 2322c4fc b7070080  #&..#$..#"......
 0050 93871700 2326f4fe 9307f00f 2324f4fe  ....#&......#$..
 0060 232e04fc 6f00c004 8327c4fd 93972700  #...o....'....'.
 0070 0327c4fc b307f700 83a70700 0327c4fe  .'...........'..
 0080 6352f702 8327c4fd 93972700 0327c4fc  cR...'....'..'..
 0090 b307f700 83a70700 2326f4fe 8327c4fd  ........#&...'..
 00a0 2324f4fe 8327c4fd 93871700 232ef4fc  #$...'......#...
 00b0 0327c4fd 832744fc e368f7fa 8327c4fe  .'...'D..h...'..
 00c0 93d77740 2322f4fe 232004fe 6f00c001  ..w@#"..# ..o...
 00d0 832704fe 93871700 2320f4fe 832744fe  .'......# ...'D.
 00e0 93d71700 2322f4fe 832744fe e39207fe  ....#"...'D.....
 00f0 832704fe 13071000 b317f700 93d71740  .'.............@
 0100 232af4fc 232c04fc 6f00400a 832784fd  #*..#,..o.@..'..
 0110 93972700 0327c4fc b307f700 83a70700  ..'..'..........
 0120 63dc0700 032784fc 832784fd b307f700  c....'...'......
 0130 23800700 6f00c006 832784fd 93972700  #...o....'....'.
 0140 0327c4fc b307f700 03a70700 832744fd  .'...........'D.
 0150 3307f700 832704fe b357f740 2328f4fc  3....'...W.@#(..
 0160 032704fd 9307f007 63dee700 032784fc  .'......c....'..
 0170 832784fd b307f700 1307f007 2380e700  .'..........#...
 0180 6f000002 032784fc 832784fd b307f700  o....'...'......
 0190 032704fd 13178701 13578741 2380e700  .'.......W.A#...
 01a0 832784fd 93871700 232cf4fc 032784fd  .'......#,...'..
 01b0 832744fc e36cf7f4 b7570000 1385071a  .'D..l...W......
 01c0 ef008024 832784fe 13850700 8320c103  ...$.'....... ..
 01d0 03248103 13010104 67800000 130101fd  .$......g.......
 01e0 23268102 13040103 232ea4fc 232cb4fc  #&......#...#,..
 01f0 232604fe 0327c4fd 832784fd b347f700  #&...'...'...G..
 0200 93d7f701 93f7f70f 2320f4fe 8327c4fd  ........# ...'..
 0210 13d7f741 8327c4fd b347f700 b387e740  ...A.'...G.....@
 0220 2324f4fe 832784fd 13d7f741 832784fd  #$...'.....A.'..
 0230 b347f700 b387e740 2322f4fe 6f008003  .G.....@#"..o...
 0240 832744fe 93f71700 638a0700 0327c4fe  .'D.....c....'..
 0250 832784fe b307f700 2326f4fe 832784fe  .'......#&...'..
 0260 93971700 2324f4fe 832744fe 93d71700  ....#$...'D.....
 0270 2322f4fe 832744fe e39407fc 832704fe  #"...'D......'..
 0280 63880700 8327c4fe b307f040 6f008000  c....'.....@o...
 0290 8327c4fe 13850700 0324c102 13010103  .'.......$......
 02a0 67800000 130101fb 23261104 23248104  g.......#&..#$..
 02b0 13040105 2326a4fc 2324b4fc 2322c4fc  ....#&..#$..#"..
 02c0 2320d4fc 232ee4fa 232cf4fa 832784fc  # ..#...#,...'..
 02d0 2326f4fe 232404fe 6f00c00d 8327c4fc  #&..#$..o....'..
 02e0 2322f4fe 231104fe 232e04fc 6f00c008  #"..#...#...o...
 02f0 232c04fc 6f00c006 8327c4fe 13871700  #,..o....'......
 0300 2326e4fe 83c70700 a30bf4fc 832744fe  #&...........'D.
 0310 13871700 2322e4fe 83c70700 230bf4fc  ....#"......#...
 0320 830774fd 030764fd 93050700 13850700  ..t...d.........
 0330 eff0dfea 93070500 13970701 13570701  .............W..
 0340 835724fe b307f700 93970701 93d70701  .W$.............
 0350 2311f4fe 832784fd 93871700 232cf4fc  #....'......#,..
 0360 032784fd 9307f000 e3f8e7f8 8327c4fd  .'...........'..
 0370 93870701 232ef4fc 0327c4fd 832704fc  ....#....'...'..
 0380 e368f7f6 832784fe 93972700 032784fb  .h...'....'..'..
 0390 b307f700 031724fe 23a0e700 b7570000  ......$.#....W..
 03a0 1385471a ef004006 832784fe 93871700  ..G...@..'......
 03b0 2324f4fe 032784fe 8327c4fb e360f7f2  #$...'...'...`..
 03c0 13000000 13000000 8320c104 03248104  ......... ...$..
 03d0 13010105 67800000 130101fe 232e8100  ....g.......#...
 03e0 13040102 93070500 a307f4fe b7c70000  ................
 03f0 0347f4fe 23a0e700 13000000 0324c101  .G..#........$..
 0400 13010102 67800000 130101fe 232e1100  ....g.......#...
 0410 232c8100 13040102 2326a4fe 6f00c001  #,......#&..o...
 0420 8327c4fe 13871700 2326e4fe 83c70700  .'......#&......
 0430 13850700 eff05ffa 8327c4fe 83c70700  ......_..'......
 0440 e39007fe 13000000 13000000 8320c101  ............. ..
 0450 03248101 13010102 67800000 130101fc  .$......g.......
 0460 232e1102 232c8102 13040104 2326a4fc  #...#,......#&..
 0470 232404fe 8327c4fc 63de0700 1305d002  #$...'..c.......
 0480 eff09ff5 8327c4fc b307f040 2326f4fe  .....'.....@#&..
 0490 6f00c000 8327c4fc 2326f4fe 8327c4fe  o....'..#&...'..
 04a0 63980700 13050003 eff01ff3 6f00000a  c...........o...
 04b0 232204fe 6f00c008 b7570000 13878732  #"..o....W.....2
 04c0 832744fe 93972700 b307f700 83a70700  .'D...'.........
 04d0 232ef4fc 232004fe 6f000002 0327c4fe  #...# ..o....'..
 04e0 8327c4fd b307f740 2326f4fe 832704fe  .'.....@#&...'..
 04f0 93871700 2320f4fe 0327c4fe 8327c4fd  ....# ...'...'..
 0500 e37ef7fc 832704fe 63960700 832784fe  .~...'..c....'..
 0510 63820702 832704fe 93f7f70f 93870703  c....'..........
 0520 93f7f70f 13850700 eff01feb 93071000  ................
 0530 2324f4fe 832744fe 93871700 2322f4fe  #$...'D.....#"..
 0540 032744fe 93079000 e3d8e7f6 8320c103  .'D.......... ..
 0550 03248103 13010104 67800000 130101ff  .$......g.......
 0560 23261100 23248100 13040101 1305a000  #&..#$..........
 0570 eff09fe6 13000000 8320c100 03248100  ......... ...$..
 0580 13010101 67800000 130101fd 23261102  ....g.......#&..
 0590 23248102 13040103 232ea4fc b7570000  #$......#....W..
 05a0 1385872a eff05fe6 eff05ffb b7570000  ...*.._..._..W..
 05b0 93874735 13070001 93060010 13068000  ..G5............
 05c0 b7450000 93850500 0325c4fd eff09fcd  .E.......%......
 05d0 b7570000 1385072b eff01fe3 eff01ff8  .W.....+........
 05e0 13060001 b7570000 93854739 b7570000  .....W....G9.W..
 05f0 13854735 eff0dfa3 b7570000 1385c72b  ..G5.....W.....+
 0600 eff09fe0 eff09ff5 b7570000 93874735  .........W....G5
 0610 13070001 93060001 13068000 b7550000  .............U..
 0620 93850500 37550000 13054539 eff09fc7  ....7U....E9....
 0630 b7570000 1385c72c eff01fdd eff01ff2  .W.....,........
 0640 13060001 b7570000 93854739 b7570000  .....W....G9.W..
 0650 13854735 eff0df9d b7570000 1385872d  ..G5.....W.....-
 0660 eff09fda eff09fef b7570000 93874735  .........W....G5
 0670 1307a000 93060001 13068000 b7550000  .............U..
 0680 93850510 37550000 13054539 eff09fc1  ....7U....E9....
 0690 b7570000 1385872e eff01fd7 eff01fec  .W..............
 06a0 1306a000 b7570000 93854739 b7570000  .....W....G9.W..
 06b0 13854735 eff0df97 93070500 2326f4fe  ..G5........#&..
 06c0 b7570000 1385472f eff01fd4 eff01fe9  .W....G/........
 06d0 8327c4fe 13850700 8320c102 03248102  .'....... ...$..
 06e0 13010103 67800000 130101fe 232e1100  ....g.......#...
 06f0 232c8100 13040102 b7570000 1385c72f  #,.......W...../
 0700 eff09fd0 eff09fe5 b7570000 1385871a  .........W......
 0710 eff09fe7 2326a4fe b7570000 13858731  ....#&...W.....1
 0720 eff09fce 8327c4fe 13850700 eff01fd3  .....'..........
 0730 eff0dfe2 eff09fe2 6f000000           ........o...    
Contents of section .data:
 4000 0101ff01 010101ff 01ffff01 01010101  ................
 4010 01010101 0101ff01 ff010101 01010101  ................
 4020 0101ff01 01010101 ffffff01 ff01ff01  ................
 4030 01010101 ff01ffff ffff0101 01010101  ................
 4040 01010101 01ffff01 ffffffff 01010101  ................
 4050 01010101 ff01ffff 01ff01ff ff0101ff  ................
 4060 01ff01ff ffffffff 01ffff01 0101ff01  ................
 4070 ff01ff01 01ffffff ffffff01 ffff0101  ................
 4080 ff0101ff ffff0101 01ffffff 01010101  ................
 4090 0101ff01 01ffff01 ffffffff 01ff0101  ................
 40a0 010101ff ff0101ff ffff01ff ffff01ff  ................
 40b0 010101ff ff01ffff ffff01ff ff0101ff  ................
 40c0 01010101 01ff0101 01ffffff ff0101ff  ................
 40d0 ff0101ff 01ff0101 01ff0101 ff0101ff  ................
 40e0 01ff0101 01010101 01010101 01010101  ................
 40f0 01010101 01ff0101 01ff0101 01ff0101  ................
 4100 ffff0101 01ffffff ffffffff ffffffff  ................
 4110 ffff0101 01030101 ffffffff ffff0101  ................
 4120 0101ff01 03030303 01ff01ff fffdffff  ................
 4130 0101ff01 01030101 010101ff ffffffff  ................
 4140 ffffff03 01ffff03 03ffff01 01fffd01  ................
 4150 ffff0103 010301ff fd0301ff ff01ff01  ................
 4160 01fffffd fdfdfdfd fdfd01ff fffdff01  ................
 4170 01fffdfd fdfdfdfd fdfdfd01 fffd0101  ................
 4180 ff01fdfd fd01ffff fffffffd fdfd0101  ................
 4190 ff010301 ff030103 fffffffd fdff0303  ................
 41a0 01010301 03010103 ff010101 03030301  ................
 41b0 ff010301 03030303 ff030103 03030301  ................
 41c0 ff030303 ff030101 ff010303 030303ff  ................
 41d0 ff010101 01010101 ff010303 03030301  ................
 41e0 01fffdfd fdfdfd01 01fffdfd 01010101  ................
 41f0 ffffffff ffffffff 0101ffff ff01ff01  ................
 4200 01010101 01010101 010101ff 01010101  ................
 4210 0101ff01 01030101 0101fdfd ff010101  ................
 4220 01010101 ffff0101 fffffdff ffffff01  ................
 4230 010101ff fdfdfdff fffffdff ff01ff01  ................
 4240 0101fffd fdfdff03 fffd01ff 01fdfd01  ................
 4250 0101fffd ff01fffd 0303fffd fdfdfd01  ................
 4260 0101fffd fdfdfdff 030301fd fdfd0101  ................
 4270 010101fd fdfdfd01 03ff01fd fdff0303  ................
 4280 010101ff 01030103 0103fdfd 01030301  ................
 4290 01010101 01010103 03fdfd01 03030303  ................
 42a0 0101fffd 01010103 01fd0303 03030301  ................
 42b0 0101fffd 03010303 fdfdffff ff030301  ................
 42c0 01010303 fffffffd 01fffdfd fd010101  ................
 42d0 01010303 ffffffff ff0103fd ff010101  ................
 42e0 01010101 0101fdfd fdfdffff ff0101ff  ................
 42f0 010101ff 0101ffff ffff0101 01010101  ................
 4300 ff010101 ff010101 0101ff01 01010101  ................
 4310 01ff01ff 01010101 0101ffff ffff01ff  ................
 4320 ffffffff ffff0103 03030101 ffffff01  ................
 4330 0101fffd ffff0101 030303ff 03fdffff  ................
 4340 0101ffff ffff01ff ff0103ff 030301ff  ................
 4350 0101fffd ffff0101 01ff0303 0103fdff  ................
 4360 0101ffff ffffffff fdfdff03 0103fdff  ................
 4370 01fffd01 01ffff03 fffdfdff 01030301  ................
 4380 01ff0101 03030301 fdfd0101 01010303  ................
 4390 01ff0103 030303fd fd030103 03030301  ................
 43a0 ffffff03 0303fdfd ffffff01 03030301  ................
 43b0 01ff0103 0303fdfd fdfdffff 03030101  ................
 43c0 ff010103 ff0101fd fdfdfdff 01ffffff  ................
 43d0 01fffdff 01010101 fdfffdfd fdfdff01  ................
 43e0 010101ff fffffffd fdfdfdfd fdfd01ff  ................
 43f0 0101ffff 0101ff01 ffffff01 ffff0101  ................
 4400 01ff01ff 01ff0101 ffff01ff ffffff01  ................
 4410 ffff0101 01010103 03030301 ffffffff  ................
 4420 ff010101 01010303 03030301 fdfdff01  ................
 4430 ffff0101 ff01ff01 01010101 01fdffff  ................
 4440 ff010303 01010103 01ff01ff 03fdfdff  ................
 4450 01010301 01fdfdfd ff030303 03fdfd01  ................
 4460 0101fffd fdfdfdfd 03030103 fffdffff  ................
 4470 fffffdfd fdfdfd03 010101ff fdfd01ff  ................
 4480 fffffffd fd010103 0301ffff 01ff01ff  ................
 4490 01030303 0101ff03 01fd0101 010303ff  ................
 44a0 ff030303 fffdfdff ff030301 0103ff01  ................
 44b0 ff030303 0301fffd ffffff01 01ffffff  ................
 44c0 01010301 01fdff01 ffffff03 ffffffff  ................
 44d0 01010301 0101ffff ff0101fd fdffff01  ................
 44e0 ffff0103 03030303 ff01fffd ffff01ff  ................
 44f0 01ff01ff ffffffff ffffffff 0101ff01  ................
 4500 01010101 ff01ff01 01ffffff 01010101  ................
 4510 0101ffff fffdfdfd fdfdfdfd ffff01ff  ................
 4520 010101ff fdfdfdfd fdfdfdff ff010101  ................
 4530 010101ff ff01ff01 ffff01ff ff010101  ................
 4540 0101ff01 ffffff01 01ffff01 01010101  ................
 4550 ff01ffff ff010101 fd0101ff ffffffff  ................
 4560 fffffdff 01030301 01030101 fffdfd01  ................
 4570 0101ff03 03010303 01030101 03fdfdff  ................
 4580 ff010303 030301ff ff030301 fffdff01  ................
 4590 01ff0103 030301fd 010303ff 0301fdff  ................
 45a0 01010101 01ffff01 0301ff01 fffdff01  ................
 45b0 01fffffd fdfdfdfd fdfdffff fdfd0101  ................
 45c0 0101fffd fdfdfdfd fdfdfdfd ffff0101  ................
 45d0 0101ffff fffffffd fdffffff 01010101  ................
 45e0 01010303 0101fffd ffffff01 0301ff01  ................
 45f0 ff010101 01010101 03010101 01010101  ................
 4600 01010101 010101ff 01ff0101 01010101  ................
 4610 01ffff01 fffffdff fffdff01 01010101  ................
 4620 01ffffff ffff01ff ff01fd01 01030101  ................
 4630 ff01ff01 010101ff ffffffff 01030301  ................
 4640 01ffff03 0301fdff fdfdffff 01030301  ................
 4650 0101ff01 030103fd fd030303 01030301  ................
 4660 01ffff01 01030301 fd01fdff ffff0101  ................
 4670 ff010303 01030303 fdffffff 0301ffff  ................
 4680 010103ff 01010301 ffff0101 0103ffff  ................
 4690 fffffdff 0101ff03 0101ffff 0103fdff  ................
 46a0 fffffd01 01010103 01ffff03 ff01fd01  ................
 46b0 0101ffff fdff0101 ffffff01 01fffdff  ................
 46c0 fffffffd 01ffffff ff010101 01ffff01  ................
 46d0 0101fffd ffff0303 03010103 01ffffff  ................
 46e0 01ffffff fdfdfffd fdfffdfd ff010101  ................
 46f0 010101ff fffdfdfd fdfdfdff ff010101  ................
 4700 0101ff01 01010103 01010101 01010101  ................
 4710 01010101 01030303 0301ff01 01010101  ................
 4720 ff010101 01030101 ffffff01 ff01ff01  ................
 4730 01010101 01fffd01 01ffffff fffffdff  ................
 4740 01010101 ffff0101 ffffffff fffdfdff  ................
 4750 01ff01ff ff01fd01 0303fffd fffdfdff  ................
 4760 01ffffff fffdff03 01010101 0101fdfd  ................
 4770 ff01fdff ff010101 fdff01ff 010301ff  ................
 4780 0101fd01 ff0301fd fdff0101 01030101  ................
 4790 01ff0103 ff0303fd fdfd0103 01030301  ................
 47a0 010101ff 01030303 ff0303ff 01010301  ................
 47b0 010103ff 01030303 03ff0101 01ffff01  ................
 47c0 010101ff ffff0101 010301fd fdfdff01  ................
 47d0 0101ff01 0301ff01 fffdfdfd fdfdffff  ................
 47e0 0101ffff fffdfdfd fdfdfdfd fdffff01  ................
 47f0 01ff0101 01fffffd ffff01ff 01010101  ................
 4800 ff01ffff 01010101 01010101 01010101  ................
 4810 01010101 01030303 01ff0101 01010101  ................
 4820 ff0101ff 01010101 ff01ff01 030301ff  ................
 4830 01ff01ff ff01fdfd fdfffdfd fd030101  ................
 4840 ff010101 fffffdff fdfdfdfd fdfd0101  ................
 4850 01ffffff ffffffff fdfdfdff fffdfdff  ................
 4860 fffdfdff 01fffffd fdfffdff fffdfdff  ................
 4870 fffffd01 01010303 0101ff01 030303ff  ................
 4880 ff010103 01030303 01030101 03030301  ................
 4890 0101ff03 01010301 03030303 030303ff  ................
 48a0 01ffff03 03010301 03030303 03030301  ................
 48b0 0101ffff 01ff01ff 01ff0101 01ff01ff  ................
 48c0 0101fffd ff010101 fdfffffd fdfdffff  ................
 48d0 010101ff fdfffdfd fdfdfdfd fffd0101  ................
 48e0 0101ff01 fffdfdfd fffdfdfd fdff0101  ................
 48f0 01ff01ff fffffdfd fdfdfdff ffff0101  ................
 4900 ffffffff ffffffff ffffffff ffffffff  ................
 4910 ffffffff ffffff01 ff0101ff ffffffff  ................
 4920 ffffffff ffff01ff ff0101ff ff01ffff  ................
 4930 ffffffff ffff0101 ffff01ff 010301ff  ................
 4940 ffffffff ffff0101 ffffff01 ff0101ff  ................
 4950 010101ff ffff0303 01ff01ff 01ff03ff  ................
 4960 ff030101 01030303 fdfd0101 030301ff  ................
 4970 ff030103 030303fd fdfdfdfd ff0301ff  ................
 4980 ff010303 0101fdfd fdfdfdfd 010301ff  ................
 4990 ffff0101 0101fdfd fdfdffff 0103fdfd  ................
 49a0 ffffffff fffffdfd fdfd0101 03fffdff  ................
 49b0 ffffffff 01ff0101 ffffff01 01ffffff  ................
 49c0 fffffffd ffff0303 03030301 0101ffff  ................
 49d0 ffffffff ff010101 01030101 01ffffff  ................
 49e0 ffffff01 03030303 03010303 0101ffff  ................
 49f0 ffffffff 01010101 01010101 ffffffff  ................
 4a00 01ff01ff 01ff0101 ff0101ff ff0101ff  ................
 4a10 ffffffff 01010101 01010103 010101ff  ................
 4a20 0101ffff fdffff03 01030101 010101ff  ................
 4a30 01fffffd ffffff01 ff01ff03 ffff01ff  ................
 4a40 fffffdff ffffff01 01ffffff 01030301  ................
 4a50 fffffdff ff010303 fdfdffff ff01ff01  ................
 4a60 fffdfd03 03030303 03fd0101 01030101  ................
 4a70 fffffd01 01ffff03 0301ff01 01030301  ................
 4a80 0101ffff ffffff01 0101fffd fdfd0101  ................
 4a90 01fffdff ff030101 01fffdfd fdff0101  ................
 4aa0 fffffdff 01030303 ffffffff ff0301ff  ................
 4ab0 fffffdff 010301ff ffff0101 030301ff  ................
 4ac0 01ffff01 01ffff01 01ff0101 0101ffff  ................
 4ad0 01fffffd ff010101 ff010103 0101ff01  ................
 4ae0 01fffdfd ffff0101 01030101 ffffffff  ................
 4af0 ffff01ff ff010101 01ff01ff ff01ff01  ................
 4b00 ffffff01 01ffffff ffffffff ffffffff  ................
 4b10 01ffffff ff01ffff fdfdffff ff010101  ................
 4b20 ffff0101 01030301 fdfdfdfd ff0101ff  ................
 4b30 ffffffff ff010303 0303ffff fffdff01  ................
 4b40 ff01fdfd ffff0103 03030101 fffdfd01  ................
 4b50 fffffd01 01010103 030301ff 01fffdff  ................
 4b60 ffff0303 03010101 01ff0103 0301ffff  ................
 4b70 01010303 0101fdff 01010103 0303ffff  ................
 4b80 ff0101ff fdfdff01 ffff0101 01fdffff  ................
 4b90 ffff01fd ffff01ff fd01ffff fdffffff  ................
 4ba0 01ffffff ff0303ff ffff0101 0101ff01  ................
 4bb0 fffffdff 0101fdff fdffff01 ff010101  ................
 4bc0 01ffff01 01ff0101 fffffdfd ffffffff  ................
 4bd0 ffffff01 ffffffff ffffffff 030301ff  ................
 4be0 ffff0103 03030303 03030303 0301ffff  ................
 4bf0 ffff0101 01030303 03030303 0101ffff  ................
 4c00 ffffffff ffffffff ffffffff ff01ffff  ................
 4c10 ffff01ff ffffffff 01010303 0101ffff  ................
 4c20 ffffffff 01ff0301 030103ff 030303ff  ................
 4c30 ffff0101 01010101 01010303 030303ff  ................
 4c40 ffffffff ffff0101 03030101 01030301  ................
 4c50 ffffffff 01010103 fdfdfdfd fdfdfd01  ................
 4c60 ffff01ff 01010103 01fffdfd fdfdfdff  ................
 4c70 ffffffff ffffff03 01ff0101 fdfdfdff  ................
 4c80 ff01ffff 01010101 ff010101 030301ff  ................
 4c90 fffffffd fdfdfdff fdff0103 010303ff  ................
 4ca0 ff010303 fffdfdfd fd010103 030301ff  ................
 4cb0 ff010303 03fffdff ffff01ff 0303ffff  ................
 4cc0 ffff01ff 01010101 01ffff01 0103ffff  ................
 4cd0 01ff0101 ff0101ff ff01ffff ff01ff01  ................
 4ce0 ffff0103 03030303 0303ffff 0101ffff  ................
 4cf0 ffff01ff 0101ffff ffffffff ffffffff  ................
 4d00 01010101 ffffff01 ffff01ff 01010101  ................
 4d10 ff010101 01ffffff ffffff01 01ff0101  ................
 4d20 0101ffff fffdfdfd fdfdfdfd ff010101  ................
 4d30 01ff0103 01010101 ff01fdff ffffffff  ................
 4d40 01010303 03030101 ffff0101 0101fd01  ................
 4d50 01030303 01010303 03030101 0101fd01  ................
 4d60 01030303 01010101 030301ff 03fdffff  ................
 4d70 010301fd fffdfdfd fd01ffff fdfd0103  ................
 4d80 ff01fdfd fdfdfdfd fd010303 03030303  ................
 4d90 fffffdfd fffffd01 01010101 03030301  ................
 4da0 0101ffff ff010101 01ff01ff ff030301  ................
 4db0 0101fffd ffff0101 01fdfdfd fdfd0101  ................
 4dc0 01fffdfd ffffffff fffdfdfd fdfdff01  ................
 4dd0 01010103 01fdfffd fffffdfd fdfd0101  ................
 4de0 01ff0301 01010101 0101fffd fdfdffff  ................
 4df0 01ffffff 0101ffff 01030301 0101ff01  ................
 4e00 01ff0101 0101ff01 0101ff01 ff0101ff  ................
 4e10 ffff0101 01ffffff fdfffffd fdffffff  ................
 4e20 ff0101ff fffdfdfd fdfdfdfd fdfdff01  ................
 4e30 ff0101ff fdffff01 fffdfdfd fdfdff01  ................
 4e40 0101fffd ff01ff01 01010103 03030301  ................
 4e50 0101fffd ffffff01 01030303 03030303  ................
 4e60 0101ff01 0101ff01 01fffdfd 03030303  ................
 4e70 ff01ffff 01010103 01fdfdfd fdfd0301  ................
 4e80 0101ff01 ff030101 fdfdfdfd fdfdff01  ................
 4e90 01010303 ff0101ff ff0101ff fdff01ff  ................
 4ea0 ff01ff03 03ffffff 01010101 fdfdff01  ................
 4eb0 fffffd01 0101ffff ffffff01 010101ff  ................
 4ec0 ffffffff ffffffff ffffff01 ff010101  ................
 4ed0 0101fffd ff0101ff fffdffff ff030101  ................
 4ee0 01ffffff fffdffff ff010303 03030101  ................
 4ef0 0101ff01 ffff0101 0101ff01 01ff0101  ................
 4f00 0101ffff ff01ff01 01ffffff ffff0101  ................
 4f10 0101ff01 01010101 01fffdff 0101ffff  ................
 4f20 01ff0303 03010101 0101fdfd fdfdffff  ................
 4f30 01010303 ffff0101 ff01fdfd fdfd0101  ................
 4f40 ff010301 ff01ffff 03fffffd fdfdffff  ................
 4f50 01010301 fdfdfd03 0303fffd fdfdffff  ................
 4f60 010101fd fdff0303 03fffdfd fdffff01  ................
 4f70 0101fffd 01030103 01fffdfd fd010101  ................
 4f80 0101ffff 0101fdfd 0101ffff 03030101  ................
 4f90 ff01fffd fdfdfdfd 03fdff01 01030101  ................
 4fa0 01fffffd fffffdfd 03ffff01 03030101  ................
 4fb0 0101fdff 0101fdff 03030301 01010101  ................
 4fc0 0101fdff 0101ffff ff010303 01ffff01  ................
 4fd0 01010101 ff0101ff ffff0301 ffff0101  ................
 4fe0 0101ff01 01ffff01 01fd0101 01010101  ................
 4ff0 01010101 ffffffff ffff0101 ff010101  ................
 5000 01030101 ff0301ff 01ffff03 ff01ff01  ................
 5010 fffdfdfd 01fdff03 0301ffff 01fffd03  ................
 5020 010101fd ff010301 030103fd 03ff03ff  ................
 5030 0103ff01 01fffd01 03ff0101 010301fd  ................
 5040 01fd01ff 010301fd ff01ff01 fd01fd03  ................
 5050 fffffdfd 03ff0101 ff03ff01 03010301  ................
 5060 01fdff03 010103fd fffd0303 ff0101ff  ................
 5070 fffd03ff fd03fdff fdfd0101 03fd0101  ................
 5080 01ff03fd 0301fffd fd03ff01 ff030103  ................
 5090 ff010301 fffd01ff 01fd0301 fd01ff03  ................
 50a0 01030303 03ffff01 01ffffff ffffff03  ................
 50b0 01ffff03 fffd0103 01030301 fffdfffd  ................
 50c0 01fffd01 ff030303 01fdfffd fdfdfd01  ................
 50d0 01fffd01 03ff0301 fdfd0103 01fdff01  ................
 50e0 ff010101 fdff0101 ff01ff01 03ff03fd  ................
 50f0 0101ff03 ff010103 fd03fd01 fd03fffd  ................
 5100 fffdfdff fdfdfdff fdffff03 01ff0303  ................
 5110 fd01fffd fffdff01 030303ff fffffffd  ................
 5120 01ffff03 fffffffd fd0103ff ffffffff  ................
 5130 ff03ffff fd03ffff 01fd01fd ff03fdfd  ................
 5140 01fd01fd 03fdffff ffffff01 03fffdff  ................
 5150 fd0103ff fd03ffff fffdffff fdff03fd  ................
 5160 fd030101 fdfdfdff fd01fd03 01fd01fd  ................
 5170 01fdff01 01fffffd 03fffffd fffdfd03  ................
 5180 fdff01ff fdff03ff fd01ff01 ff03fffd  ................
 5190 03fffdfd 01ff0103 fffdfdff ff01ff01  ................
 51a0 2d2d2d00 2e000000 eaeaeaea eaeaeaea  ---.............
 51b0 eaeaeaea eaeaeaea eaeaeaea eaeaeaea  ................
 51c0 eaeaeaea eaeaeaea eaeaeaea eaeaeaea  ................
 51d0 eaeaeaea eaeaeaea eaeaeaea 0b401e06  .............@..
 51e0 f2eaeaea eaeaeaea eaeaeaea 1c7c7f73  .............|.s
 51f0 42fdeaea eaeaeaea eaeaeaea f4123a61  B.............:a
 5200 7c46eaea eaeaeaea eaeaeaea eaeaeaf0  |F..............
 5210 2f64f5ea eaeaeaea eaeaeaea eaeaeaeb  /d..............
 5220 2c68f5ea eaeaeaea eaeaeaea eaeaeaf0  ,h..............
 5230 446af4ea eaeaeaea eaeaeaea eaeaeaf3  Dj..............
 5240 4d63eeea eaeaeaea eaeaeaea eaeaeaf3  Mc..............
 5250 4d60eaea eaeaeaea eaeaeaea eaeaeaf3  M`..............
 5260 4d60eaea eaeaeaea eaeaeaea eaeaeaf3  M`..............
 5270 4d60eaea eaeaeaea eaeaeaea eaeaeaef  M`..............
 5280 3e61ecea eaeaeaea eaeaeaea eaeaeaea  >a..............
 5290 1247f2ea eaeaeaea eaeaeaea eaeaeaea  .G..............
 52a0 ecf0ebea eaeaeaea 6c315f69 6e000000  ........l1_in...
 52b0 6663315f 646f6e65 00000000 6c315f6f  fc1_done....l1_o
 52c0 7574206c 325f696e 00000000 6663325f  ut l2_in....fc2_
 52d0 646f6e65 00000000 6c325f6f 7574206c  done....l2_out l
 52e0 335f696e 00000000 6663335f 646f6e65  3_in....fc3_done
 52f0 00000000 6c335f6f 75740000 53746172  ....l3_out..Star
 5300 74696e67 204d4e49 53542069 6e666572  ting MNIST infer
 5310 656e6365 2e2e2e00 50726564 69637469  ence....Predicti
 5320 6f6e3120 3d200000 00ca9a3b 00e1f505  on1 = .....;....
 5330 80969800 40420f00 a0860100 10270000  ....@B.......'..
 5340 e8030000 64000000 0a000000 01000000  ....d...........
 5350 07000000                             ....            

Disassembly of section .text:

00000000 <_start>:
   0:	00008117          	auipc	sp,0x8
   4:	00010113          	mv	sp,sp
   8:	00005297          	auipc	t0,0x5
   c:	34c28293          	addi	t0,t0,844 # 5354 <layer_out.1>
  10:	00005317          	auipc	t1,0x5
  14:	39430313          	addi	t1,t1,916 # 53a4 <__bss_end>

00000018 <bss_clear_loop>:
  18:	0062f863          	bgeu	t0,t1,28 <bss_clear_done>
  1c:	0002a023          	sw	zero,0(t0)
  20:	00428293          	addi	t0,t0,4
  24:	ff5ff06f          	j	18 <bss_clear_loop>

00000028 <bss_clear_done>:
  28:	6c0000ef          	jal	6e8 <main>

0000002c <hang>:
  2c:	0000006f          	j	2c <hang>

00000030 <ReLUNorm>:
  30:	fc010113          	addi	sp,sp,-64 # 7fc0 <__bss_end+0x2c1c>
  34:	02112e23          	sw	ra,60(sp)
  38:	02812c23          	sw	s0,56(sp)
  3c:	04010413          	addi	s0,sp,64
  40:	fca42623          	sw	a0,-52(s0)
  44:	fcb42423          	sw	a1,-56(s0)
  48:	fcc42223          	sw	a2,-60(s0)
  4c:	800007b7          	lui	a5,0x80000
  50:	00178793          	addi	a5,a5,1 # 80000001 <__stack_top+0x7fff8001>
  54:	fef42623          	sw	a5,-20(s0)
  58:	0ff00793          	li	a5,255
  5c:	fef42423          	sw	a5,-24(s0)
  60:	fc042e23          	sw	zero,-36(s0)
  64:	04c0006f          	j	b0 <ReLUNorm+0x80>
  68:	fdc42783          	lw	a5,-36(s0)
  6c:	00279793          	slli	a5,a5,0x2
  70:	fcc42703          	lw	a4,-52(s0)
  74:	00f707b3          	add	a5,a4,a5
  78:	0007a783          	lw	a5,0(a5)
  7c:	fec42703          	lw	a4,-20(s0)
  80:	02f75263          	bge	a4,a5,a4 <ReLUNorm+0x74>
  84:	fdc42783          	lw	a5,-36(s0)
  88:	00279793          	slli	a5,a5,0x2
  8c:	fcc42703          	lw	a4,-52(s0)
  90:	00f707b3          	add	a5,a4,a5
  94:	0007a783          	lw	a5,0(a5)
  98:	fef42623          	sw	a5,-20(s0)
  9c:	fdc42783          	lw	a5,-36(s0)
  a0:	fef42423          	sw	a5,-24(s0)
  a4:	fdc42783          	lw	a5,-36(s0)
  a8:	00178793          	addi	a5,a5,1
  ac:	fcf42e23          	sw	a5,-36(s0)
  b0:	fdc42703          	lw	a4,-36(s0)
  b4:	fc442783          	lw	a5,-60(s0)
  b8:	faf768e3          	bltu	a4,a5,68 <ReLUNorm+0x38>
  bc:	fec42783          	lw	a5,-20(s0)
  c0:	4077d793          	srai	a5,a5,0x7
  c4:	fef42223          	sw	a5,-28(s0)
  c8:	fe042023          	sw	zero,-32(s0)
  cc:	01c0006f          	j	e8 <ReLUNorm+0xb8>
  d0:	fe042783          	lw	a5,-32(s0)
  d4:	00178793          	addi	a5,a5,1
  d8:	fef42023          	sw	a5,-32(s0)
  dc:	fe442783          	lw	a5,-28(s0)
  e0:	0017d793          	srli	a5,a5,0x1
  e4:	fef42223          	sw	a5,-28(s0)
  e8:	fe442783          	lw	a5,-28(s0)
  ec:	fe0792e3          	bnez	a5,d0 <ReLUNorm+0xa0>
  f0:	fe042783          	lw	a5,-32(s0)
  f4:	00100713          	li	a4,1
  f8:	00f717b3          	sll	a5,a4,a5
  fc:	4017d793          	srai	a5,a5,0x1
 100:	fcf42a23          	sw	a5,-44(s0)
 104:	fc042c23          	sw	zero,-40(s0)
 108:	0a40006f          	j	1ac <ReLUNorm+0x17c>
 10c:	fd842783          	lw	a5,-40(s0)
 110:	00279793          	slli	a5,a5,0x2
 114:	fcc42703          	lw	a4,-52(s0)
 118:	00f707b3          	add	a5,a4,a5
 11c:	0007a783          	lw	a5,0(a5)
 120:	0007dc63          	bgez	a5,138 <ReLUNorm+0x108>
 124:	fc842703          	lw	a4,-56(s0)
 128:	fd842783          	lw	a5,-40(s0)
 12c:	00f707b3          	add	a5,a4,a5
 130:	00078023          	sb	zero,0(a5)
 134:	06c0006f          	j	1a0 <ReLUNorm+0x170>
 138:	fd842783          	lw	a5,-40(s0)
 13c:	00279793          	slli	a5,a5,0x2
 140:	fcc42703          	lw	a4,-52(s0)
 144:	00f707b3          	add	a5,a4,a5
 148:	0007a703          	lw	a4,0(a5)
 14c:	fd442783          	lw	a5,-44(s0)
 150:	00f70733          	add	a4,a4,a5
 154:	fe042783          	lw	a5,-32(s0)
 158:	40f757b3          	sra	a5,a4,a5
 15c:	fcf42823          	sw	a5,-48(s0)
 160:	fd042703          	lw	a4,-48(s0)
 164:	07f00793          	li	a5,127
 168:	00e7de63          	bge	a5,a4,184 <ReLUNorm+0x154>
 16c:	fc842703          	lw	a4,-56(s0)
 170:	fd842783          	lw	a5,-40(s0)
 174:	00f707b3          	add	a5,a4,a5
 178:	07f00713          	li	a4,127
 17c:	00e78023          	sb	a4,0(a5)
 180:	0200006f          	j	1a0 <ReLUNorm+0x170>
 184:	fc842703          	lw	a4,-56(s0)
 188:	fd842783          	lw	a5,-40(s0)
 18c:	00f707b3          	add	a5,a4,a5
 190:	fd042703          	lw	a4,-48(s0)
 194:	01871713          	slli	a4,a4,0x18
 198:	41875713          	srai	a4,a4,0x18
 19c:	00e78023          	sb	a4,0(a5)
 1a0:	fd842783          	lw	a5,-40(s0)
 1a4:	00178793          	addi	a5,a5,1
 1a8:	fcf42c23          	sw	a5,-40(s0)
 1ac:	fd842703          	lw	a4,-40(s0)
 1b0:	fc442783          	lw	a5,-60(s0)
 1b4:	f4f76ce3          	bltu	a4,a5,10c <ReLUNorm+0xdc>
 1b8:	000057b7          	lui	a5,0x5
 1bc:	1a078513          	addi	a0,a5,416 # 51a0 <L3_weights+0xa0>
 1c0:	248000ef          	jal	408 <print_str>
 1c4:	fe842783          	lw	a5,-24(s0)
 1c8:	00078513          	mv	a0,a5
 1cc:	03c12083          	lw	ra,60(sp)
 1d0:	03812403          	lw	s0,56(sp)
 1d4:	04010113          	addi	sp,sp,64
 1d8:	00008067          	ret

000001dc <multiply_soft>:
 1dc:	fd010113          	addi	sp,sp,-48
 1e0:	02812623          	sw	s0,44(sp)
 1e4:	03010413          	addi	s0,sp,48
 1e8:	fca42e23          	sw	a0,-36(s0)
 1ec:	fcb42c23          	sw	a1,-40(s0)
 1f0:	fe042623          	sw	zero,-20(s0)
 1f4:	fdc42703          	lw	a4,-36(s0)
 1f8:	fd842783          	lw	a5,-40(s0)
 1fc:	00f747b3          	xor	a5,a4,a5
 200:	01f7d793          	srli	a5,a5,0x1f
 204:	0ff7f793          	zext.b	a5,a5
 208:	fef42023          	sw	a5,-32(s0)
 20c:	fdc42783          	lw	a5,-36(s0)
 210:	41f7d713          	srai	a4,a5,0x1f
 214:	fdc42783          	lw	a5,-36(s0)
 218:	00f747b3          	xor	a5,a4,a5
 21c:	40e787b3          	sub	a5,a5,a4
 220:	fef42423          	sw	a5,-24(s0)
 224:	fd842783          	lw	a5,-40(s0)
 228:	41f7d713          	srai	a4,a5,0x1f
 22c:	fd842783          	lw	a5,-40(s0)
 230:	00f747b3          	xor	a5,a4,a5
 234:	40e787b3          	sub	a5,a5,a4
 238:	fef42223          	sw	a5,-28(s0)
 23c:	0380006f          	j	274 <multiply_soft+0x98>
 240:	fe442783          	lw	a5,-28(s0)
 244:	0017f793          	andi	a5,a5,1
 248:	00078a63          	beqz	a5,25c <multiply_soft+0x80>
 24c:	fec42703          	lw	a4,-20(s0)
 250:	fe842783          	lw	a5,-24(s0)
 254:	00f707b3          	add	a5,a4,a5
 258:	fef42623          	sw	a5,-20(s0)
 25c:	fe842783          	lw	a5,-24(s0)
 260:	00179793          	slli	a5,a5,0x1
 264:	fef42423          	sw	a5,-24(s0)
 268:	fe442783          	lw	a5,-28(s0)
 26c:	0017d793          	srli	a5,a5,0x1
 270:	fef42223          	sw	a5,-28(s0)
 274:	fe442783          	lw	a5,-28(s0)
 278:	fc0794e3          	bnez	a5,240 <multiply_soft+0x64>
 27c:	fe042783          	lw	a5,-32(s0)
 280:	00078863          	beqz	a5,290 <multiply_soft+0xb4>
 284:	fec42783          	lw	a5,-20(s0)
 288:	40f007b3          	neg	a5,a5
 28c:	0080006f          	j	294 <multiply_soft+0xb8>
 290:	fec42783          	lw	a5,-20(s0)
 294:	00078513          	mv	a0,a5
 298:	02c12403          	lw	s0,44(sp)
 29c:	03010113          	addi	sp,sp,48
 2a0:	00008067          	ret

000002a4 <processfclayer>:
 2a4:	fb010113          	addi	sp,sp,-80
 2a8:	04112623          	sw	ra,76(sp)
 2ac:	04812423          	sw	s0,72(sp)
 2b0:	05010413          	addi	s0,sp,80
 2b4:	fca42623          	sw	a0,-52(s0)
 2b8:	fcb42423          	sw	a1,-56(s0)
 2bc:	fcc42223          	sw	a2,-60(s0)
 2c0:	fcd42023          	sw	a3,-64(s0)
 2c4:	fae42e23          	sw	a4,-68(s0)
 2c8:	faf42c23          	sw	a5,-72(s0)
 2cc:	fc842783          	lw	a5,-56(s0)
 2d0:	fef42623          	sw	a5,-20(s0)
 2d4:	fe042423          	sw	zero,-24(s0)
 2d8:	0dc0006f          	j	3b4 <processfclayer+0x110>
 2dc:	fcc42783          	lw	a5,-52(s0)
 2e0:	fef42223          	sw	a5,-28(s0)
 2e4:	fe041123          	sh	zero,-30(s0)
 2e8:	fc042e23          	sw	zero,-36(s0)
 2ec:	08c0006f          	j	378 <processfclayer+0xd4>
 2f0:	fc042c23          	sw	zero,-40(s0)
 2f4:	06c0006f          	j	360 <processfclayer+0xbc>
 2f8:	fec42783          	lw	a5,-20(s0)
 2fc:	00178713          	addi	a4,a5,1
 300:	fee42623          	sw	a4,-20(s0)
 304:	0007c783          	lbu	a5,0(a5)
 308:	fcf40ba3          	sb	a5,-41(s0)
 30c:	fe442783          	lw	a5,-28(s0)
 310:	00178713          	addi	a4,a5,1
 314:	fee42223          	sw	a4,-28(s0)
 318:	0007c783          	lbu	a5,0(a5)
 31c:	fcf40b23          	sb	a5,-42(s0)
 320:	fd740783          	lb	a5,-41(s0)
 324:	fd640703          	lb	a4,-42(s0)
 328:	00070593          	mv	a1,a4
 32c:	00078513          	mv	a0,a5
 330:	eadff0ef          	jal	1dc <multiply_soft>
 334:	00050793          	mv	a5,a0
 338:	01079713          	slli	a4,a5,0x10
 33c:	01075713          	srli	a4,a4,0x10
 340:	fe245783          	lhu	a5,-30(s0)
 344:	00f707b3          	add	a5,a4,a5
 348:	01079793          	slli	a5,a5,0x10
 34c:	0107d793          	srli	a5,a5,0x10
 350:	fef41123          	sh	a5,-30(s0)
 354:	fd842783          	lw	a5,-40(s0)
 358:	00178793          	addi	a5,a5,1
 35c:	fcf42c23          	sw	a5,-40(s0)
 360:	fd842703          	lw	a4,-40(s0)
 364:	00f00793          	li	a5,15
 368:	f8e7f8e3          	bgeu	a5,a4,2f8 <processfclayer+0x54>
 36c:	fdc42783          	lw	a5,-36(s0)
 370:	01078793          	addi	a5,a5,16
 374:	fcf42e23          	sw	a5,-36(s0)
 378:	fdc42703          	lw	a4,-36(s0)
 37c:	fc042783          	lw	a5,-64(s0)
 380:	f6f768e3          	bltu	a4,a5,2f0 <processfclayer+0x4c>
 384:	fe842783          	lw	a5,-24(s0)
 388:	00279793          	slli	a5,a5,0x2
 38c:	fb842703          	lw	a4,-72(s0)
 390:	00f707b3          	add	a5,a4,a5
 394:	fe241703          	lh	a4,-30(s0)
 398:	00e7a023          	sw	a4,0(a5)
 39c:	000057b7          	lui	a5,0x5
 3a0:	1a478513          	addi	a0,a5,420 # 51a4 <L3_weights+0xa4>
 3a4:	064000ef          	jal	408 <print_str>
 3a8:	fe842783          	lw	a5,-24(s0)
 3ac:	00178793          	addi	a5,a5,1
 3b0:	fef42423          	sw	a5,-24(s0)
 3b4:	fe842703          	lw	a4,-24(s0)
 3b8:	fbc42783          	lw	a5,-68(s0)
 3bc:	f2f760e3          	bltu	a4,a5,2dc <processfclayer+0x38>
 3c0:	00000013          	nop
 3c4:	00000013          	nop
 3c8:	04c12083          	lw	ra,76(sp)
 3cc:	04812403          	lw	s0,72(sp)
 3d0:	05010113          	addi	sp,sp,80
 3d4:	00008067          	ret

000003d8 <putch>:
 3d8:	fe010113          	addi	sp,sp,-32
 3dc:	00812e23          	sw	s0,28(sp)
 3e0:	02010413          	addi	s0,sp,32
 3e4:	00050793          	mv	a5,a0
 3e8:	fef407a3          	sb	a5,-17(s0)
 3ec:	0000c7b7          	lui	a5,0xc
 3f0:	fef44703          	lbu	a4,-17(s0)
 3f4:	00e7a023          	sw	a4,0(a5) # c000 <__stack_top+0x4000>
 3f8:	00000013          	nop
 3fc:	01c12403          	lw	s0,28(sp)
 400:	02010113          	addi	sp,sp,32
 404:	00008067          	ret

00000408 <print_str>:
 408:	fe010113          	addi	sp,sp,-32
 40c:	00112e23          	sw	ra,28(sp)
 410:	00812c23          	sw	s0,24(sp)
 414:	02010413          	addi	s0,sp,32
 418:	fea42623          	sw	a0,-20(s0)
 41c:	01c0006f          	j	438 <print_str+0x30>
 420:	fec42783          	lw	a5,-20(s0)
 424:	00178713          	addi	a4,a5,1
 428:	fee42623          	sw	a4,-20(s0)
 42c:	0007c783          	lbu	a5,0(a5)
 430:	00078513          	mv	a0,a5
 434:	fa5ff0ef          	jal	3d8 <putch>
 438:	fec42783          	lw	a5,-20(s0)
 43c:	0007c783          	lbu	a5,0(a5)
 440:	fe0790e3          	bnez	a5,420 <print_str+0x18>
 444:	00000013          	nop
 448:	00000013          	nop
 44c:	01c12083          	lw	ra,28(sp)
 450:	01812403          	lw	s0,24(sp)
 454:	02010113          	addi	sp,sp,32
 458:	00008067          	ret

0000045c <print_dec>:
 45c:	fc010113          	addi	sp,sp,-64
 460:	02112e23          	sw	ra,60(sp)
 464:	02812c23          	sw	s0,56(sp)
 468:	04010413          	addi	s0,sp,64
 46c:	fca42623          	sw	a0,-52(s0)
 470:	fe042423          	sw	zero,-24(s0)
 474:	fcc42783          	lw	a5,-52(s0)
 478:	0007de63          	bgez	a5,494 <print_dec+0x38>
 47c:	02d00513          	li	a0,45
 480:	f59ff0ef          	jal	3d8 <putch>
 484:	fcc42783          	lw	a5,-52(s0)
 488:	40f007b3          	neg	a5,a5
 48c:	fef42623          	sw	a5,-20(s0)
 490:	00c0006f          	j	49c <print_dec+0x40>
 494:	fcc42783          	lw	a5,-52(s0)
 498:	fef42623          	sw	a5,-20(s0)
 49c:	fec42783          	lw	a5,-20(s0)
 4a0:	00079863          	bnez	a5,4b0 <print_dec+0x54>
 4a4:	03000513          	li	a0,48
 4a8:	f31ff0ef          	jal	3d8 <putch>
 4ac:	0a00006f          	j	54c <print_dec+0xf0>
 4b0:	fe042223          	sw	zero,-28(s0)
 4b4:	08c0006f          	j	540 <print_dec+0xe4>
 4b8:	000057b7          	lui	a5,0x5
 4bc:	32878713          	addi	a4,a5,808 # 5328 <p10.2>
 4c0:	fe442783          	lw	a5,-28(s0)
 4c4:	00279793          	slli	a5,a5,0x2
 4c8:	00f707b3          	add	a5,a4,a5
 4cc:	0007a783          	lw	a5,0(a5)
 4d0:	fcf42e23          	sw	a5,-36(s0)
 4d4:	fe042023          	sw	zero,-32(s0)
 4d8:	0200006f          	j	4f8 <print_dec+0x9c>
 4dc:	fec42703          	lw	a4,-20(s0)
 4e0:	fdc42783          	lw	a5,-36(s0)
 4e4:	40f707b3          	sub	a5,a4,a5
 4e8:	fef42623          	sw	a5,-20(s0)
 4ec:	fe042783          	lw	a5,-32(s0)
 4f0:	00178793          	addi	a5,a5,1
 4f4:	fef42023          	sw	a5,-32(s0)
 4f8:	fec42703          	lw	a4,-20(s0)
 4fc:	fdc42783          	lw	a5,-36(s0)
 500:	fcf77ee3          	bgeu	a4,a5,4dc <print_dec+0x80>
 504:	fe042783          	lw	a5,-32(s0)
 508:	00079663          	bnez	a5,514 <print_dec+0xb8>
 50c:	fe842783          	lw	a5,-24(s0)
 510:	02078263          	beqz	a5,534 <print_dec+0xd8>
 514:	fe042783          	lw	a5,-32(s0)
 518:	0ff7f793          	zext.b	a5,a5
 51c:	03078793          	addi	a5,a5,48
 520:	0ff7f793          	zext.b	a5,a5
 524:	00078513          	mv	a0,a5
 528:	eb1ff0ef          	jal	3d8 <putch>
 52c:	00100793          	li	a5,1
 530:	fef42423          	sw	a5,-24(s0)
 534:	fe442783          	lw	a5,-28(s0)
 538:	00178793          	addi	a5,a5,1
 53c:	fef42223          	sw	a5,-28(s0)
 540:	fe442703          	lw	a4,-28(s0)
 544:	00900793          	li	a5,9
 548:	f6e7d8e3          	bge	a5,a4,4b8 <print_dec+0x5c>
 54c:	03c12083          	lw	ra,60(sp)
 550:	03812403          	lw	s0,56(sp)
 554:	04010113          	addi	sp,sp,64
 558:	00008067          	ret

0000055c <putnl>:
 55c:	ff010113          	addi	sp,sp,-16
 560:	00112623          	sw	ra,12(sp)
 564:	00812423          	sw	s0,8(sp)
 568:	01010413          	addi	s0,sp,16
 56c:	00a00513          	li	a0,10
 570:	e69ff0ef          	jal	3d8 <putch>
 574:	00000013          	nop
 578:	00c12083          	lw	ra,12(sp)
 57c:	00812403          	lw	s0,8(sp)
 580:	01010113          	addi	sp,sp,16
 584:	00008067          	ret

00000588 <BitMnistInference>:
 588:	fd010113          	addi	sp,sp,-48
 58c:	02112623          	sw	ra,44(sp)
 590:	02812423          	sw	s0,40(sp)
 594:	03010413          	addi	s0,sp,48
 598:	fca42e23          	sw	a0,-36(s0)
 59c:	000057b7          	lui	a5,0x5
 5a0:	2a878513          	addi	a0,a5,680 # 52a8 <input_data_0+0x100>
 5a4:	e65ff0ef          	jal	408 <print_str>
 5a8:	fb5ff0ef          	jal	55c <putnl>
 5ac:	000057b7          	lui	a5,0x5
 5b0:	35478793          	addi	a5,a5,852 # 5354 <layer_out.1>
 5b4:	01000713          	li	a4,16
 5b8:	10000693          	li	a3,256
 5bc:	00800613          	li	a2,8
 5c0:	000045b7          	lui	a1,0x4
 5c4:	00058593          	mv	a1,a1
 5c8:	fdc42503          	lw	a0,-36(s0)
 5cc:	cd9ff0ef          	jal	2a4 <processfclayer>
 5d0:	000057b7          	lui	a5,0x5
 5d4:	2b078513          	addi	a0,a5,688 # 52b0 <input_data_0+0x108>
 5d8:	e31ff0ef          	jal	408 <print_str>
 5dc:	f81ff0ef          	jal	55c <putnl>
 5e0:	01000613          	li	a2,16
 5e4:	000057b7          	lui	a5,0x5
 5e8:	39478593          	addi	a1,a5,916 # 5394 <layer_in.0>
 5ec:	000057b7          	lui	a5,0x5
 5f0:	35478513          	addi	a0,a5,852 # 5354 <layer_out.1>
 5f4:	a3dff0ef          	jal	30 <ReLUNorm>
 5f8:	000057b7          	lui	a5,0x5
 5fc:	2bc78513          	addi	a0,a5,700 # 52bc <input_data_0+0x114>
 600:	e09ff0ef          	jal	408 <print_str>
 604:	f59ff0ef          	jal	55c <putnl>
 608:	000057b7          	lui	a5,0x5
 60c:	35478793          	addi	a5,a5,852 # 5354 <layer_out.1>
 610:	01000713          	li	a4,16
 614:	01000693          	li	a3,16
 618:	00800613          	li	a2,8
 61c:	000055b7          	lui	a1,0x5
 620:	00058593          	mv	a1,a1
 624:	00005537          	lui	a0,0x5
 628:	39450513          	addi	a0,a0,916 # 5394 <layer_in.0>
 62c:	c79ff0ef          	jal	2a4 <processfclayer>
 630:	000057b7          	lui	a5,0x5
 634:	2cc78513          	addi	a0,a5,716 # 52cc <input_data_0+0x124>
 638:	dd1ff0ef          	jal	408 <print_str>
 63c:	f21ff0ef          	jal	55c <putnl>
 640:	01000613          	li	a2,16
 644:	000057b7          	lui	a5,0x5
 648:	39478593          	addi	a1,a5,916 # 5394 <layer_in.0>
 64c:	000057b7          	lui	a5,0x5
 650:	35478513          	addi	a0,a5,852 # 5354 <layer_out.1>
 654:	9ddff0ef          	jal	30 <ReLUNorm>
 658:	000057b7          	lui	a5,0x5
 65c:	2d878513          	addi	a0,a5,728 # 52d8 <input_data_0+0x130>
 660:	da9ff0ef          	jal	408 <print_str>
 664:	ef9ff0ef          	jal	55c <putnl>
 668:	000057b7          	lui	a5,0x5
 66c:	35478793          	addi	a5,a5,852 # 5354 <layer_out.1>
 670:	00a00713          	li	a4,10
 674:	01000693          	li	a3,16
 678:	00800613          	li	a2,8
 67c:	000055b7          	lui	a1,0x5
 680:	10058593          	addi	a1,a1,256 # 5100 <L3_weights>
 684:	00005537          	lui	a0,0x5
 688:	39450513          	addi	a0,a0,916 # 5394 <layer_in.0>
 68c:	c19ff0ef          	jal	2a4 <processfclayer>
 690:	000057b7          	lui	a5,0x5
 694:	2e878513          	addi	a0,a5,744 # 52e8 <input_data_0+0x140>
 698:	d71ff0ef          	jal	408 <print_str>
 69c:	ec1ff0ef          	jal	55c <putnl>
 6a0:	00a00613          	li	a2,10
 6a4:	000057b7          	lui	a5,0x5
 6a8:	39478593          	addi	a1,a5,916 # 5394 <layer_in.0>
 6ac:	000057b7          	lui	a5,0x5
 6b0:	35478513          	addi	a0,a5,852 # 5354 <layer_out.1>
 6b4:	97dff0ef          	jal	30 <ReLUNorm>
 6b8:	00050793          	mv	a5,a0
 6bc:	fef42623          	sw	a5,-20(s0)
 6c0:	000057b7          	lui	a5,0x5
 6c4:	2f478513          	addi	a0,a5,756 # 52f4 <input_data_0+0x14c>
 6c8:	d41ff0ef          	jal	408 <print_str>
 6cc:	e91ff0ef          	jal	55c <putnl>
 6d0:	fec42783          	lw	a5,-20(s0)
 6d4:	00078513          	mv	a0,a5
 6d8:	02c12083          	lw	ra,44(sp)
 6dc:	02812403          	lw	s0,40(sp)
 6e0:	03010113          	addi	sp,sp,48
 6e4:	00008067          	ret

000006e8 <main>:
 6e8:	fe010113          	addi	sp,sp,-32
 6ec:	00112e23          	sw	ra,28(sp)
 6f0:	00812c23          	sw	s0,24(sp)
 6f4:	02010413          	addi	s0,sp,32
 6f8:	000057b7          	lui	a5,0x5
 6fc:	2fc78513          	addi	a0,a5,764 # 52fc <input_data_0+0x154>
 700:	d09ff0ef          	jal	408 <print_str>
 704:	e59ff0ef          	jal	55c <putnl>
 708:	000057b7          	lui	a5,0x5
 70c:	1a878513          	addi	a0,a5,424 # 51a8 <input_data_0>
 710:	e79ff0ef          	jal	588 <BitMnistInference>
 714:	fea42623          	sw	a0,-20(s0)
 718:	000057b7          	lui	a5,0x5
 71c:	31878513          	addi	a0,a5,792 # 5318 <input_data_0+0x170>
 720:	ce9ff0ef          	jal	408 <print_str>
 724:	fec42783          	lw	a5,-20(s0)
 728:	00078513          	mv	a0,a5
 72c:	d31ff0ef          	jal	45c <print_dec>
 730:	e2dff0ef          	jal	55c <putnl>
 734:	e29ff0ef          	jal	55c <putnl>
 738:	0000006f          	j	738 <main+0x50>
